; Function Attrs: mustprogress nofree norecurse nosync nounwind willreturn memory(argmem: read) uwtable
define noundef i32 @_ZNK3gmx8internal30AnalysisNeighborhoodSearchImpl16getGridCellIndexEPKi(ptr noundef nonnull readonly align 8 captures(none) dereferenceable(624) %0, ptr noundef readonly captures(none) %1) local_unnamed_addr #20 align 2 {
  %3 = load i32, ptr %1, align 4, !tbaa !39
  %4 = getelementptr inbounds nuw i8, ptr %1, i64 4
  %5 = load i32, ptr %4, align 4, !tbaa !39
  %6 = getelementptr inbounds nuw i8, ptr %0, i64 520
  %7 = load i32, ptr %6, align 8, !tbaa !39
  %8 = getelementptr inbounds nuw i8, ptr %1, i64 8
  %9 = load i32, ptr %8, align 4, !tbaa !39
  %10 = getelementptr inbounds nuw i8, ptr %0, i64 524
  %11 = load i32, ptr %10, align 4, !tbaa !39
  %12 = mul i32 %11, %9
  %reass.add = add i32 %12, %5
  %reass.mul = mul i32 %reass.add, %7
  %13 = add i32 %reass.mul, %3
  ret i32 %13
}